
Eindopdracht_8x8_matrix.elf:     file format elf32-avr

Sections:
Idx Name          Size      VMA       LMA       File off  Algn
  0 .data         000001a0  00800100  000003b2  00000426  2**0
                  CONTENTS, ALLOC, LOAD, DATA
  1 .text         000003b2  00000000  00000000  00000074  2**1
                  CONTENTS, ALLOC, LOAD, READONLY, CODE
  2 .comment      00000030  00000000  00000000  000005c6  2**0
                  CONTENTS, READONLY
  3 .note.gnu.avr.deviceinfo 0000003c  00000000  00000000  000005f8  2**2
                  CONTENTS, READONLY
  4 .debug_aranges 00000098  00000000  00000000  00000634  2**0
                  CONTENTS, READONLY, DEBUGGING
  5 .debug_info   000011e9  00000000  00000000  000006cc  2**0
                  CONTENTS, READONLY, DEBUGGING
  6 .debug_abbrev 00000a13  00000000  00000000  000018b5  2**0
                  CONTENTS, READONLY, DEBUGGING
  7 .debug_line   000006ae  00000000  00000000  000022c8  2**0
                  CONTENTS, READONLY, DEBUGGING
  8 .debug_frame  00000204  00000000  00000000  00002978  2**2
                  CONTENTS, READONLY, DEBUGGING
  9 .debug_str    00000550  00000000  00000000  00002b7c  2**0
                  CONTENTS, READONLY, DEBUGGING
 10 .debug_loc    00000979  00000000  00000000  000030cc  2**0
                  CONTENTS, READONLY, DEBUGGING
 11 .debug_ranges 000000a8  00000000  00000000  00003a45  2**0
                  CONTENTS, READONLY, DEBUGGING

Disassembly of section .text:

00000000 <__vectors>:
   0:	45 c0       	rjmp	.+138    	; 0x8c <__ctors_end>
   2:	00 00       	nop
   4:	58 c0       	rjmp	.+176    	; 0xb6 <__bad_interrupt>
   6:	00 00       	nop
   8:	56 c0       	rjmp	.+172    	; 0xb6 <__bad_interrupt>
   a:	00 00       	nop
   c:	54 c0       	rjmp	.+168    	; 0xb6 <__bad_interrupt>
   e:	00 00       	nop
  10:	52 c0       	rjmp	.+164    	; 0xb6 <__bad_interrupt>
  12:	00 00       	nop
  14:	50 c0       	rjmp	.+160    	; 0xb6 <__bad_interrupt>
  16:	00 00       	nop
  18:	4e c0       	rjmp	.+156    	; 0xb6 <__bad_interrupt>
  1a:	00 00       	nop
  1c:	4c c0       	rjmp	.+152    	; 0xb6 <__bad_interrupt>
  1e:	00 00       	nop
  20:	4a c0       	rjmp	.+148    	; 0xb6 <__bad_interrupt>
  22:	00 00       	nop
  24:	48 c0       	rjmp	.+144    	; 0xb6 <__bad_interrupt>
  26:	00 00       	nop
  28:	46 c0       	rjmp	.+140    	; 0xb6 <__bad_interrupt>
  2a:	00 00       	nop
  2c:	44 c0       	rjmp	.+136    	; 0xb6 <__bad_interrupt>
  2e:	00 00       	nop
  30:	42 c0       	rjmp	.+132    	; 0xb6 <__bad_interrupt>
  32:	00 00       	nop
  34:	40 c0       	rjmp	.+128    	; 0xb6 <__bad_interrupt>
  36:	00 00       	nop
  38:	3e c0       	rjmp	.+124    	; 0xb6 <__bad_interrupt>
  3a:	00 00       	nop
  3c:	3c c0       	rjmp	.+120    	; 0xb6 <__bad_interrupt>
  3e:	00 00       	nop
  40:	3a c0       	rjmp	.+116    	; 0xb6 <__bad_interrupt>
  42:	00 00       	nop
  44:	38 c0       	rjmp	.+112    	; 0xb6 <__bad_interrupt>
  46:	00 00       	nop
  48:	36 c0       	rjmp	.+108    	; 0xb6 <__bad_interrupt>
  4a:	00 00       	nop
  4c:	34 c0       	rjmp	.+104    	; 0xb6 <__bad_interrupt>
  4e:	00 00       	nop
  50:	32 c0       	rjmp	.+100    	; 0xb6 <__bad_interrupt>
  52:	00 00       	nop
  54:	30 c0       	rjmp	.+96     	; 0xb6 <__bad_interrupt>
  56:	00 00       	nop
  58:	2e c0       	rjmp	.+92     	; 0xb6 <__bad_interrupt>
  5a:	00 00       	nop
  5c:	2c c0       	rjmp	.+88     	; 0xb6 <__bad_interrupt>
  5e:	00 00       	nop
  60:	2a c0       	rjmp	.+84     	; 0xb6 <__bad_interrupt>
  62:	00 00       	nop
  64:	28 c0       	rjmp	.+80     	; 0xb6 <__bad_interrupt>
  66:	00 00       	nop
  68:	26 c0       	rjmp	.+76     	; 0xb6 <__bad_interrupt>
  6a:	00 00       	nop
  6c:	24 c0       	rjmp	.+72     	; 0xb6 <__bad_interrupt>
  6e:	00 00       	nop
  70:	22 c0       	rjmp	.+68     	; 0xb6 <__bad_interrupt>
  72:	00 00       	nop
  74:	20 c0       	rjmp	.+64     	; 0xb6 <__bad_interrupt>
  76:	00 00       	nop
  78:	1e c0       	rjmp	.+60     	; 0xb6 <__bad_interrupt>
  7a:	00 00       	nop
  7c:	1c c0       	rjmp	.+56     	; 0xb6 <__bad_interrupt>
  7e:	00 00       	nop
  80:	1a c0       	rjmp	.+52     	; 0xb6 <__bad_interrupt>
  82:	00 00       	nop
  84:	18 c0       	rjmp	.+48     	; 0xb6 <__bad_interrupt>
  86:	00 00       	nop
  88:	16 c0       	rjmp	.+44     	; 0xb6 <__bad_interrupt>
	...

0000008c <__ctors_end>:
  8c:	11 24       	eor	r1, r1
  8e:	1f be       	out	0x3f, r1	; 63
  90:	cf ef       	ldi	r28, 0xFF	; 255
  92:	d0 e1       	ldi	r29, 0x10	; 16
  94:	de bf       	out	0x3e, r29	; 62
  96:	cd bf       	out	0x3d, r28	; 61

00000098 <__do_copy_data>:
  98:	12 e0       	ldi	r17, 0x02	; 2
  9a:	a0 e0       	ldi	r26, 0x00	; 0
  9c:	b1 e0       	ldi	r27, 0x01	; 1
  9e:	e2 eb       	ldi	r30, 0xB2	; 178
  a0:	f3 e0       	ldi	r31, 0x03	; 3
  a2:	00 e0       	ldi	r16, 0x00	; 0
  a4:	0b bf       	out	0x3b, r16	; 59
  a6:	02 c0       	rjmp	.+4      	; 0xac <__do_copy_data+0x14>
  a8:	07 90       	elpm	r0, Z+
  aa:	0d 92       	st	X+, r0
  ac:	a0 3a       	cpi	r26, 0xA0	; 160
  ae:	b1 07       	cpc	r27, r17
  b0:	d9 f7       	brne	.-10     	; 0xa8 <__do_copy_data+0x10>
  b2:	62 d1       	rcall	.+708    	; 0x378 <main>
  b4:	7c c1       	rjmp	.+760    	; 0x3ae <_exit>

000000b6 <__bad_interrupt>:
  b6:	a4 cf       	rjmp	.-184    	; 0x0 <__vectors>

000000b8 <twi_init>:
		bit >>= 1;
		count--;
	}
	reverse_bit <<= count;
	return reverse_bit;
}
  b8:	10 92 71 00 	sts	0x0071, r1	; 0x800071 <__TEXT_REGION_LENGTH__+0x7e0071>
  bc:	80 e2       	ldi	r24, 0x20	; 32
  be:	80 93 70 00 	sts	0x0070, r24	; 0x800070 <__TEXT_REGION_LENGTH__+0x7e0070>
  c2:	08 95       	ret

000000c4 <twi_start>:
  c4:	84 ea       	ldi	r24, 0xA4	; 164
  c6:	80 93 74 00 	sts	0x0074, r24	; 0x800074 <__TEXT_REGION_LENGTH__+0x7e0074>
  ca:	e4 e7       	ldi	r30, 0x74	; 116
  cc:	f0 e0       	ldi	r31, 0x00	; 0
  ce:	80 81       	ld	r24, Z
  d0:	88 23       	and	r24, r24
  d2:	ec f7       	brge	.-6      	; 0xce <twi_start+0xa>
  d4:	08 95       	ret

000000d6 <twi_tx>:
  d6:	80 93 73 00 	sts	0x0073, r24	; 0x800073 <__TEXT_REGION_LENGTH__+0x7e0073>
  da:	84 e8       	ldi	r24, 0x84	; 132
  dc:	80 93 74 00 	sts	0x0074, r24	; 0x800074 <__TEXT_REGION_LENGTH__+0x7e0074>
  e0:	e4 e7       	ldi	r30, 0x74	; 116
  e2:	f0 e0       	ldi	r31, 0x00	; 0
  e4:	80 81       	ld	r24, Z
  e6:	88 23       	and	r24, r24
  e8:	ec f7       	brge	.-6      	; 0xe4 <twi_tx+0xe>
  ea:	08 95       	ret

000000ec <wait>:
  ec:	18 16       	cp	r1, r24
  ee:	19 06       	cpc	r1, r25
  f0:	6c f4       	brge	.+26     	; 0x10c <wait+0x20>
  f2:	20 e0       	ldi	r18, 0x00	; 0
  f4:	30 e0       	ldi	r19, 0x00	; 0
  f6:	ef ec       	ldi	r30, 0xCF	; 207
  f8:	f7 e0       	ldi	r31, 0x07	; 7
  fa:	31 97       	sbiw	r30, 0x01	; 1
  fc:	f1 f7       	brne	.-4      	; 0xfa <wait+0xe>
  fe:	00 c0       	rjmp	.+0      	; 0x100 <wait+0x14>
 100:	00 00       	nop
 102:	2f 5f       	subi	r18, 0xFF	; 255
 104:	3f 4f       	sbci	r19, 0xFF	; 255
 106:	28 17       	cp	r18, r24
 108:	39 07       	cpc	r19, r25
 10a:	a9 f7       	brne	.-22     	; 0xf6 <wait+0xa>
 10c:	08 95       	ret

0000010e <sendDataAtLine>:
 10e:	cf 93       	push	r28
 110:	df 93       	push	r29
 112:	d8 2f       	mov	r29, r24
 114:	c6 2f       	mov	r28, r22
 116:	d6 df       	rcall	.-84     	; 0xc4 <twi_start>
 118:	80 ee       	ldi	r24, 0xE0	; 224
 11a:	dd df       	rcall	.-70     	; 0xd6 <twi_tx>
 11c:	8d 2f       	mov	r24, r29
 11e:	88 0f       	add	r24, r24
 120:	da df       	rcall	.-76     	; 0xd6 <twi_tx>
 122:	8c 2f       	mov	r24, r28
 124:	d8 df       	rcall	.-80     	; 0xd6 <twi_tx>
 126:	84 e9       	ldi	r24, 0x94	; 148
 128:	80 93 74 00 	sts	0x0074, r24	; 0x800074 <__TEXT_REGION_LENGTH__+0x7e0074>
 12c:	df 91       	pop	r29
 12e:	cf 91       	pop	r28
 130:	08 95       	ret

00000132 <clear>:
 132:	cf 93       	push	r28
 134:	df 93       	push	r29
 136:	c8 e0       	ldi	r28, 0x08	; 8
 138:	d0 e0       	ldi	r29, 0x00	; 0
 13a:	80 e0       	ldi	r24, 0x00	; 0
 13c:	90 e0       	ldi	r25, 0x00	; 0
 13e:	e7 df       	rcall	.-50     	; 0x10e <sendDataAtLine>
 140:	21 97       	sbiw	r28, 0x01	; 1
 142:	d9 f7       	brne	.-10     	; 0x13a <clear+0x8>
 144:	df 91       	pop	r29
 146:	cf 91       	pop	r28
 148:	08 95       	ret

0000014a <display8x8MultiArray>:
 14a:	2f 92       	push	r2
 14c:	3f 92       	push	r3
 14e:	4f 92       	push	r4
 150:	5f 92       	push	r5
 152:	6f 92       	push	r6
 154:	7f 92       	push	r7
 156:	8f 92       	push	r8
 158:	9f 92       	push	r9
 15a:	af 92       	push	r10
 15c:	bf 92       	push	r11
 15e:	cf 92       	push	r12
 160:	df 92       	push	r13
 162:	ef 92       	push	r14
 164:	ff 92       	push	r15
 166:	0f 93       	push	r16
 168:	1f 93       	push	r17
 16a:	cf 93       	push	r28
 16c:	df 93       	push	r29
 16e:	cd b7       	in	r28, 0x3d	; 61
 170:	de b7       	in	r29, 0x3e	; 62
 172:	c2 50       	subi	r28, 0x02	; 2
 174:	d1 40       	sbci	r29, 0x01	; 1
 176:	0f b6       	in	r0, 0x3f	; 63
 178:	f8 94       	cli
 17a:	de bf       	out	0x3e, r29	; 62
 17c:	0f be       	out	0x3f, r0	; 63
 17e:	cd bf       	out	0x3d, r28	; 61
 180:	5b 01       	movw	r10, r22
 182:	4a 01       	movw	r8, r20
 184:	e1 2c       	mov	r14, r1
 186:	f1 2c       	mov	r15, r1
 188:	c1 2c       	mov	r12, r1
 18a:	d1 2c       	mov	r13, r1
 18c:	20 e0       	ldi	r18, 0x00	; 0
 18e:	30 e0       	ldi	r19, 0x00	; 0
 190:	4e c0       	rjmp	.+156    	; 0x22e <display8x8MultiArray+0xe4>
 192:	a8 01       	movw	r20, r16
 194:	02 2e       	mov	r0, r18
 196:	02 c0       	rjmp	.+4      	; 0x19c <display8x8MultiArray+0x52>
 198:	55 95       	asr	r21
 19a:	47 95       	ror	r20
 19c:	0a 94       	dec	r0
 19e:	e2 f7       	brpl	.-8      	; 0x198 <display8x8MultiArray+0x4e>
 1a0:	41 70       	andi	r20, 0x01	; 1
 1a2:	55 27       	eor	r21, r21
 1a4:	4d 93       	st	X+, r20
 1a6:	5d 93       	st	X+, r21
 1a8:	ab 01       	movw	r20, r22
 1aa:	02 2e       	mov	r0, r18
 1ac:	02 c0       	rjmp	.+4      	; 0x1b2 <display8x8MultiArray+0x68>
 1ae:	55 95       	asr	r21
 1b0:	47 95       	ror	r20
 1b2:	0a 94       	dec	r0
 1b4:	e2 f7       	brpl	.-8      	; 0x1ae <display8x8MultiArray+0x64>
 1b6:	41 70       	andi	r20, 0x01	; 1
 1b8:	55 27       	eor	r21, r21
 1ba:	41 93       	st	Z+, r20
 1bc:	51 93       	st	Z+, r21
 1be:	2f 5f       	subi	r18, 0xFF	; 255
 1c0:	3f 4f       	sbci	r19, 0xFF	; 255
 1c2:	28 30       	cpi	r18, 0x08	; 8
 1c4:	31 05       	cpc	r19, r1
 1c6:	29 f7       	brne	.-54     	; 0x192 <display8x8MultiArray+0x48>
 1c8:	42 e0       	ldi	r20, 0x02	; 2
 1ca:	c4 0e       	add	r12, r20
 1cc:	d1 1c       	adc	r13, r1
 1ce:	58 e0       	ldi	r21, 0x08	; 8
 1d0:	e5 0e       	add	r14, r21
 1d2:	f1 1c       	adc	r15, r1
 1d4:	40 e4       	ldi	r20, 0x40	; 64
 1d6:	e4 16       	cp	r14, r20
 1d8:	f1 04       	cpc	r15, r1
 1da:	49 f5       	brne	.+82     	; 0x22e <display8x8MultiArray+0xe4>
 1dc:	a4 01       	movw	r20, r8
 1de:	24 01       	movw	r4, r8
 1e0:	44 0c       	add	r4, r4
 1e2:	55 1c       	adc	r5, r5
 1e4:	18 14       	cp	r1, r8
 1e6:	19 04       	cpc	r1, r9
 1e8:	14 f4       	brge	.+4      	; 0x1ee <display8x8MultiArray+0xa4>
 1ea:	94 01       	movw	r18, r8
 1ec:	02 c0       	rjmp	.+4      	; 0x1f2 <display8x8MultiArray+0xa8>
 1ee:	20 e0       	ldi	r18, 0x00	; 0
 1f0:	30 e0       	ldi	r19, 0x00	; 0
 1f2:	87 e0       	ldi	r24, 0x07	; 7
 1f4:	90 e0       	ldi	r25, 0x00	; 0
 1f6:	3c 01       	movw	r6, r24
 1f8:	68 18       	sub	r6, r8
 1fa:	79 08       	sbc	r7, r9
 1fc:	74 01       	movw	r14, r8
 1fe:	e2 1a       	sub	r14, r18
 200:	f3 0a       	sbc	r15, r19
 202:	a1 2c       	mov	r10, r1
 204:	b1 2c       	mov	r11, r1
 206:	c1 2c       	mov	r12, r1
 208:	d1 2c       	mov	r13, r1
 20a:	0f 2e       	mov	r0, r31
 20c:	f7 e0       	ldi	r31, 0x07	; 7
 20e:	2f 2e       	mov	r2, r31
 210:	31 2c       	mov	r3, r1
 212:	f0 2d       	mov	r31, r0
 214:	81 01       	movw	r16, r2
 216:	04 1b       	sub	r16, r20
 218:	15 0b       	sbc	r17, r21
 21a:	ac 01       	movw	r20, r24
 21c:	42 1b       	sub	r20, r18
 21e:	53 0b       	sbc	r21, r19
 220:	cf 5f       	subi	r28, 0xFF	; 255
 222:	de 4f       	sbci	r29, 0xFE	; 254
 224:	59 83       	std	Y+1, r21	; 0x01
 226:	48 83       	st	Y, r20
 228:	c1 50       	subi	r28, 0x01	; 1
 22a:	d1 40       	sbci	r29, 0x01	; 1
 22c:	59 c0       	rjmp	.+178    	; 0x2e0 <display8x8MultiArray+0x196>
 22e:	28 30       	cpi	r18, 0x08	; 8
 230:	31 05       	cpc	r19, r1
 232:	54 f6       	brge	.-108    	; 0x1c8 <display8x8MultiArray+0x7e>
 234:	fc 01       	movw	r30, r24
 236:	ec 0d       	add	r30, r12
 238:	fd 1d       	adc	r31, r13
 23a:	00 81       	ld	r16, Z
 23c:	11 81       	ldd	r17, Z+1	; 0x01
 23e:	f5 01       	movw	r30, r10
 240:	ec 0d       	add	r30, r12
 242:	fd 1d       	adc	r31, r13
 244:	60 81       	ld	r22, Z
 246:	71 81       	ldd	r23, Z+1	; 0x01
 248:	f9 01       	movw	r30, r18
 24a:	ee 0d       	add	r30, r14
 24c:	ff 1d       	adc	r31, r15
 24e:	ee 0f       	add	r30, r30
 250:	ff 1f       	adc	r31, r31
 252:	a1 e0       	ldi	r26, 0x01	; 1
 254:	b0 e0       	ldi	r27, 0x00	; 0
 256:	ac 0f       	add	r26, r28
 258:	bd 1f       	adc	r27, r29
 25a:	ae 0f       	add	r26, r30
 25c:	bf 1f       	adc	r27, r31
 25e:	41 e8       	ldi	r20, 0x81	; 129
 260:	50 e0       	ldi	r21, 0x00	; 0
 262:	4c 0f       	add	r20, r28
 264:	5d 1f       	adc	r21, r29
 266:	e4 0f       	add	r30, r20
 268:	f5 1f       	adc	r31, r21
 26a:	93 cf       	rjmp	.-218    	; 0x192 <display8x8MultiArray+0x48>
 26c:	21 91       	ld	r18, Z+
 26e:	31 91       	ld	r19, Z+
 270:	08 2e       	mov	r0, r24
 272:	02 c0       	rjmp	.+4      	; 0x278 <display8x8MultiArray+0x12e>
 274:	22 0f       	add	r18, r18
 276:	33 1f       	adc	r19, r19
 278:	0a 94       	dec	r0
 27a:	e2 f7       	brpl	.-8      	; 0x274 <display8x8MultiArray+0x12a>
 27c:	62 2b       	or	r22, r18
 27e:	73 2b       	or	r23, r19
 280:	01 97       	sbiw	r24, 0x01	; 1
 282:	80 17       	cp	r24, r16
 284:	91 07       	cpc	r25, r17
 286:	91 f7       	brne	.-28     	; 0x26c <display8x8MultiArray+0x122>
 288:	02 c0       	rjmp	.+4      	; 0x28e <display8x8MultiArray+0x144>
 28a:	60 e0       	ldi	r22, 0x00	; 0
 28c:	70 e0       	ldi	r23, 0x00	; 0
 28e:	16 14       	cp	r1, r6
 290:	17 04       	cpc	r1, r7
 292:	d4 f4       	brge	.+52     	; 0x2c8 <display8x8MultiArray+0x17e>
 294:	e1 e8       	ldi	r30, 0x81	; 129
 296:	f0 e0       	ldi	r31, 0x00	; 0
 298:	ec 0f       	add	r30, r28
 29a:	fd 1f       	adc	r31, r29
 29c:	ea 0d       	add	r30, r10
 29e:	fb 1d       	adc	r31, r11
 2a0:	cf 5f       	subi	r28, 0xFF	; 255
 2a2:	de 4f       	sbci	r29, 0xFE	; 254
 2a4:	88 81       	ld	r24, Y
 2a6:	99 81       	ldd	r25, Y+1	; 0x01
 2a8:	c1 50       	subi	r28, 0x01	; 1
 2aa:	d1 40       	sbci	r29, 0x01	; 1
 2ac:	21 91       	ld	r18, Z+
 2ae:	31 91       	ld	r19, Z+
 2b0:	08 2e       	mov	r0, r24
 2b2:	02 c0       	rjmp	.+4      	; 0x2b8 <display8x8MultiArray+0x16e>
 2b4:	22 0f       	add	r18, r18
 2b6:	33 1f       	adc	r19, r19
 2b8:	0a 94       	dec	r0
 2ba:	e2 f7       	brpl	.-8      	; 0x2b4 <display8x8MultiArray+0x16a>
 2bc:	62 2b       	or	r22, r18
 2be:	73 2b       	or	r23, r19
 2c0:	01 97       	sbiw	r24, 0x01	; 1
 2c2:	8e 15       	cp	r24, r14
 2c4:	9f 05       	cpc	r25, r15
 2c6:	91 f7       	brne	.-28     	; 0x2ac <display8x8MultiArray+0x162>
 2c8:	c6 01       	movw	r24, r12
 2ca:	21 df       	rcall	.-446    	; 0x10e <sendDataAtLine>
 2cc:	5f ef       	ldi	r21, 0xFF	; 255
 2ce:	c5 1a       	sub	r12, r21
 2d0:	d5 0a       	sbc	r13, r21
 2d2:	80 e1       	ldi	r24, 0x10	; 16
 2d4:	a8 0e       	add	r10, r24
 2d6:	b1 1c       	adc	r11, r1
 2d8:	98 e0       	ldi	r25, 0x08	; 8
 2da:	c9 16       	cp	r12, r25
 2dc:	d1 04       	cpc	r13, r1
 2de:	81 f0       	breq	.+32     	; 0x300 <display8x8MultiArray+0x1b6>
 2e0:	18 14       	cp	r1, r8
 2e2:	19 04       	cpc	r1, r9
 2e4:	94 f6       	brge	.-92     	; 0x28a <display8x8MultiArray+0x140>
 2e6:	f5 01       	movw	r30, r10
 2e8:	e4 0d       	add	r30, r4
 2ea:	f5 1d       	adc	r31, r5
 2ec:	41 e0       	ldi	r20, 0x01	; 1
 2ee:	50 e0       	ldi	r21, 0x00	; 0
 2f0:	4c 0f       	add	r20, r28
 2f2:	5d 1f       	adc	r21, r29
 2f4:	e4 0f       	add	r30, r20
 2f6:	f5 1f       	adc	r31, r21
 2f8:	c1 01       	movw	r24, r2
 2fa:	60 e0       	ldi	r22, 0x00	; 0
 2fc:	70 e0       	ldi	r23, 0x00	; 0
 2fe:	b6 cf       	rjmp	.-148    	; 0x26c <display8x8MultiArray+0x122>
 300:	ce 5f       	subi	r28, 0xFE	; 254
 302:	de 4f       	sbci	r29, 0xFE	; 254
 304:	0f b6       	in	r0, 0x3f	; 63
 306:	f8 94       	cli
 308:	de bf       	out	0x3e, r29	; 62
 30a:	0f be       	out	0x3f, r0	; 63
 30c:	cd bf       	out	0x3d, r28	; 61
 30e:	df 91       	pop	r29
 310:	cf 91       	pop	r28
 312:	1f 91       	pop	r17
 314:	0f 91       	pop	r16
 316:	ff 90       	pop	r15
 318:	ef 90       	pop	r14
 31a:	df 90       	pop	r13
 31c:	cf 90       	pop	r12
 31e:	bf 90       	pop	r11
 320:	af 90       	pop	r10
 322:	9f 90       	pop	r9
 324:	8f 90       	pop	r8
 326:	7f 90       	pop	r7
 328:	6f 90       	pop	r6
 32a:	5f 90       	pop	r5
 32c:	4f 90       	pop	r4
 32e:	3f 90       	pop	r3
 330:	2f 90       	pop	r2
 332:	08 95       	ret

00000334 <initcommands>:
 334:	1f 93       	push	r17
 336:	cf 93       	push	r28
 338:	df 93       	push	r29
 33a:	c4 de       	rcall	.-632    	; 0xc4 <twi_start>
 33c:	80 ee       	ldi	r24, 0xE0	; 224
 33e:	cb de       	rcall	.-618    	; 0xd6 <twi_tx>
 340:	81 e2       	ldi	r24, 0x21	; 33
 342:	c9 de       	rcall	.-622    	; 0xd6 <twi_tx>
 344:	c4 e7       	ldi	r28, 0x74	; 116
 346:	d0 e0       	ldi	r29, 0x00	; 0
 348:	14 e9       	ldi	r17, 0x94	; 148
 34a:	18 83       	st	Y, r17
 34c:	bb de       	rcall	.-650    	; 0xc4 <twi_start>
 34e:	80 ee       	ldi	r24, 0xE0	; 224
 350:	c2 de       	rcall	.-636    	; 0xd6 <twi_tx>
 352:	80 ea       	ldi	r24, 0xA0	; 160
 354:	c0 de       	rcall	.-640    	; 0xd6 <twi_tx>
 356:	18 83       	st	Y, r17
 358:	b5 de       	rcall	.-662    	; 0xc4 <twi_start>
 35a:	80 ee       	ldi	r24, 0xE0	; 224
 35c:	bc de       	rcall	.-648    	; 0xd6 <twi_tx>
 35e:	83 ee       	ldi	r24, 0xE3	; 227
 360:	ba de       	rcall	.-652    	; 0xd6 <twi_tx>
 362:	18 83       	st	Y, r17
 364:	af de       	rcall	.-674    	; 0xc4 <twi_start>
 366:	80 ee       	ldi	r24, 0xE0	; 224
 368:	b6 de       	rcall	.-660    	; 0xd6 <twi_tx>
 36a:	81 e8       	ldi	r24, 0x81	; 129
 36c:	b4 de       	rcall	.-664    	; 0xd6 <twi_tx>
 36e:	18 83       	st	Y, r17
 370:	df 91       	pop	r29
 372:	cf 91       	pop	r28
 374:	1f 91       	pop	r17
 376:	08 95       	ret

00000378 <main>:
notes:			Looping forever, trashing the HT16K33
Version :    	DMK, Initial code
***********************/
{
	
	twi_init();		// Init TWI interface
 378:	9f de       	rcall	.-706    	; 0xb8 <twi_init>
	initcommands();	// Standard commands before running 
 37a:	dc df       	rcall	.-72     	; 0x334 <initcommands>

	
	twi_start();
 37c:	a3 de       	rcall	.-698    	; 0xc4 <twi_start>
	twi_tx(0xE0);	// Display I2C addres + R/W bit
 37e:	80 ee       	ldi	r24, 0xE0	; 224
 380:	aa de       	rcall	.-684    	; 0xd6 <twi_tx>
	twi_tx(0x00);	// Address
 382:	80 e0       	ldi	r24, 0x00	; 0
 384:	a8 de       	rcall	.-688    	; 0xd6 <twi_tx>
	twi_tx(0x00);	// data
 386:	80 e0       	ldi	r24, 0x00	; 0
 388:	a6 de       	rcall	.-692    	; 0xd6 <twi_tx>
outputs:	
notes:			
Version :    	DMK, Initial code
***********************/
{
	TWCR = (0x80 | 0x10 | 0x04);
 38a:	84 e9       	ldi	r24, 0x94	; 148
 38c:	80 93 74 00 	sts	0x0074, r24	; 0x800074 <__TEXT_REGION_LENGTH__+0x7e0074>
	twi_start();
	twi_tx(0xE0);	// Display I2C addres + R/W bit
	twi_tx(0x00);	// Address
	twi_tx(0x00);	// data
	twi_stop();
	wait(500);
 390:	84 ef       	ldi	r24, 0xF4	; 244
 392:	91 e0       	ldi	r25, 0x01	; 1
 394:	ab de       	rcall	.-682    	; 0xec <wait>
	//twi_start();
	//twi_tx(0xE0);	// Display I2C addres + R/W bit
	//twi_tx(rij);	// Address
	//twi_tx(lampje);	// De lampjes in een gegeven rij die branden waarbij FF heel de rij laat branden en 00 niks

	clear();
 396:	cd de       	rcall	.-614    	; 0x132 <clear>
				
			}
		}
*/		

		display8x8MultiArray(alphabet[1], alphabet[2], 4);
 398:	44 e0       	ldi	r20, 0x04	; 4
 39a:	50 e0       	ldi	r21, 0x00	; 0
 39c:	60 e2       	ldi	r22, 0x20	; 32
 39e:	71 e0       	ldi	r23, 0x01	; 1
 3a0:	80 e1       	ldi	r24, 0x10	; 16
 3a2:	91 e0       	ldi	r25, 0x01	; 1
 3a4:	d2 de       	rcall	.-604    	; 0x14a <display8x8MultiArray>
		wait(500);
 3a6:	84 ef       	ldi	r24, 0xF4	; 244
 3a8:	91 e0       	ldi	r25, 0x01	; 1
 3aa:	a0 de       	rcall	.-704    	; 0xec <wait>


	}
 3ac:	f5 cf       	rjmp	.-22     	; 0x398 <main+0x20>

000003ae <_exit>:
 3ae:	f8 94       	cli

000003b0 <__stop_program>:
 3b0:	ff cf       	rjmp	.-2      	; 0x3b0 <__stop_program>
